target datalayout = "e-m:e-p270:32:32-p271:32:32-p272:64:64-i64:64-i128:128-f80:128-n8:16:32:64-S128"
target triple = "x86_64-pc-linux-gnu"

%"class.Ipopt::TNLPReducer" = type { %"class.Ipopt::TNLP.base", %"class.Ipopt::SmartPtr", i32, i32, i32, ptr, i32, ptr, i32, i32, i32, ptr, i32, ptr, i32, ptr, i32, ptr }
%"class.Ipopt::TNLP.base" = type { %"class.Ipopt::ReferencedObject.base" }
%"class.Ipopt::ReferencedObject.base" = type <{ ptr, i32 }>
%"class.Ipopt::SmartPtr" = type { ptr }

; Function Attrs: mustprogress nounwind uwtable
define linkonce_odr noundef ptr @_ZNK5Ipopt8SmartPtrINS_4TNLPEEptEv(ptr noundef nonnull align 8 dereferenceable(8) %0) #3 comdat align 2 {
  %2 = alloca ptr, align 8
  store ptr %0, ptr %2, align 8
  %3 = load ptr, ptr %2, align 8
  %4 = getelementptr inbounds %"class.Ipopt::SmartPtr", ptr %3, i32 0, i32 0
  %5 = load ptr, ptr %4, align 8
  ret ptr %5
}

; Function Attrs: mustprogress uwtable
define noundef zeroext i1 @_ZN5Ipopt11TNLPReducer21intermediate_callbackENS_13AlgorithmModeEiddddddddiPKNS_9IpoptDataEPNS_25IpoptCalculatedQuantitiesE(ptr noundef nonnull align 8 dereferenceable(136) %0, i32 noundef %1, i32 noundef %2, double noundef %3, double noundef %4, double noundef %5, double noundef %6, double noundef %7, double noundef %8, double noundef %9, double noundef %10, i32 noundef %11, ptr noundef %12, ptr noundef %13) unnamed_addr #0 align 2 {
  %15 = alloca ptr, align 8
  %16 = alloca i32, align 4
  %17 = alloca i32, align 4
  %18 = alloca double, align 8
  %19 = alloca double, align 8
  %20 = alloca double, align 8
  %21 = alloca double, align 8
  %22 = alloca double, align 8
  %23 = alloca double, align 8
  %24 = alloca double, align 8
  %25 = alloca double, align 8
  %26 = alloca i32, align 4
  %27 = alloca ptr, align 8
  %28 = alloca ptr, align 8
  store ptr %0, ptr %15, align 8
  store i32 %1, ptr %16, align 4
  store i32 %2, ptr %17, align 4
  store double %3, ptr %18, align 8
  store double %4, ptr %19, align 8
  store double %5, ptr %20, align 8
  store double %6, ptr %21, align 8
  store double %7, ptr %22, align 8
  store double %8, ptr %23, align 8
  store double %9, ptr %24, align 8
  store double %10, ptr %25, align 8
  store i32 %11, ptr %26, align 4
  store ptr %12, ptr %27, align 8
  store ptr %13, ptr %28, align 8
  %29 = load ptr, ptr %15, align 8
  %30 = getelementptr inbounds %"class.Ipopt::TNLPReducer", ptr %29, i32 0, i32 1
  %31 = call noundef ptr @_ZNK5Ipopt8SmartPtrINS_4TNLPEEptEv(ptr noundef nonnull align 8 dereferenceable(8) %30)
  %32 = load i32, ptr %16, align 4
  %33 = load i32, ptr %17, align 4
  %34 = load double, ptr %18, align 8
  %35 = load double, ptr %19, align 8
  %36 = load double, ptr %20, align 8
  %37 = load double, ptr %21, align 8
  %38 = load double, ptr %22, align 8
  %39 = load double, ptr %23, align 8
  %40 = load double, ptr %24, align 8
  %41 = load double, ptr %25, align 8
  %42 = load i32, ptr %26, align 4
  %43 = load ptr, ptr %27, align 8
  %44 = load ptr, ptr %28, align 8
  %45 = load ptr, ptr %31, align 8
  %46 = getelementptr inbounds ptr, ptr %45, i64 19
  %47 = load ptr, ptr %46, align 8
  %48 = call noundef zeroext i1 %47(ptr noundef nonnull align 8 dereferenceable(12) %31, i32 noundef %32, i32 noundef %33, double noundef %34, double noundef %35, double noundef %36, double noundef %37, double noundef %38, double noundef %39, double noundef %40, double noundef %41, i32 noundef %42, ptr noundef %43, ptr noundef %44)
  ret i1 %48
}